target datalayout = "e-m:e-p270:32:32-p271:32:32-p272:64:64-i64:64-i128:128-f80:128-n8:16:32:64-S128"
target triple = "x86_64-pc-linux-gnu"

%struct.ASNItem = type { i8, i8, i8, i8 }
%struct.ASNGetData = type { i32, i32, %union.anon.0, i8, i8 }
%union.anon.0 = type { %struct.anon.3 }
%struct.anon.3 = type { ptr, i32, i32, i32 }
%struct.anon.1 = type { ptr, ptr }

@dsaSigASN = internal constant [3 x %struct.ASNItem] [%struct.ASNItem { i8 0, i8 16, i8 3, i8 0 }, %struct.ASNItem { i8 1, i8 2, i8 0, i8 0 }, %struct.ASNItem { i8 1, i8 2, i8 0, i8 0 }], align 1

; Function Attrs: nounwind uwtable
define i32 @DecodeECC_DSA_Sig_Bin(ptr noundef %0, i32 noundef %1, ptr noundef %2, ptr noundef %3, ptr noundef %4, ptr noundef %5) #0 {
  %7 = alloca ptr, align 8
  %8 = alloca i32, align 4
  %9 = alloca ptr, align 8
  %10 = alloca ptr, align 8
  %11 = alloca ptr, align 8
  %12 = alloca ptr, align 8
  %13 = alloca [3 x %struct.ASNGetData], align 16
  %14 = alloca i32, align 4
  store ptr %0, ptr %7, align 8, !tbaa !7
  store i32 %1, ptr %8, align 4, !tbaa !3
  store ptr %2, ptr %9, align 8, !tbaa !7
  store ptr %3, ptr %10, align 8, !tbaa !18
  store ptr %4, ptr %11, align 8, !tbaa !7
  store ptr %5, ptr %12, align 8, !tbaa !18
  call void @llvm.lifetime.start.p0(i64 120, ptr %13) #9
  call void @llvm.lifetime.start.p0(i64 4, ptr %14) #9
  store i32 0, ptr %14, align 4, !tbaa !3
  %15 = getelementptr inbounds [3 x %struct.ASNGetData], ptr %13, i64 0, i64 0
  call void @llvm.memset.p0.i64(ptr align 16 %15, i8 0, i64 120, i1 false)
  br label %16

16:                                               ; preds = %6
  %17 = getelementptr inbounds [3 x %struct.ASNGetData], ptr %13, i64 0, i64 1
  %18 = getelementptr inbounds nuw %struct.ASNGetData, ptr %17, i32 0, i32 3
  store i8 5, ptr %18, align 8, !tbaa !43
  %19 = load ptr, ptr %9, align 8, !tbaa !7
  %20 = getelementptr inbounds [3 x %struct.ASNGetData], ptr %13, i64 0, i64 1
  %21 = getelementptr inbounds nuw %struct.ASNGetData, ptr %20, i32 0, i32 2
  %22 = getelementptr inbounds nuw %struct.anon.1, ptr %21, i32 0, i32 0
  store ptr %19, ptr %22, align 8, !tbaa !10
  %23 = load ptr, ptr %10, align 8, !tbaa !18
  %24 = getelementptr inbounds [3 x %struct.ASNGetData], ptr %13, i64 0, i64 1
  %25 = getelementptr inbounds nuw %struct.ASNGetData, ptr %24, i32 0, i32 2
  %26 = getelementptr inbounds nuw %struct.anon.1, ptr %25, i32 0, i32 1
  store ptr %23, ptr %26, align 8, !tbaa !10
  br label %27

27:                                               ; preds = %16
  br label %28

28:                                               ; preds = %27
  br label %29

29:                                               ; preds = %28
  %30 = getelementptr inbounds [3 x %struct.ASNGetData], ptr %13, i64 0, i64 2
  %31 = getelementptr inbounds nuw %struct.ASNGetData, ptr %30, i32 0, i32 3
  store i8 5, ptr %31, align 16, !tbaa !43
  %32 = load ptr, ptr %11, align 8, !tbaa !7
  %33 = getelementptr inbounds [3 x %struct.ASNGetData], ptr %13, i64 0, i64 2
  %34 = getelementptr inbounds nuw %struct.ASNGetData, ptr %33, i32 0, i32 2
  %35 = getelementptr inbounds nuw %struct.anon.1, ptr %34, i32 0, i32 0
  store ptr %32, ptr %35, align 8, !tbaa !10
  %36 = load ptr, ptr %12, align 8, !tbaa !18
  %37 = getelementptr inbounds [3 x %struct.ASNGetData], ptr %13, i64 0, i64 2
  %38 = getelementptr inbounds nuw %struct.ASNGetData, ptr %37, i32 0, i32 2
  %39 = getelementptr inbounds nuw %struct.anon.1, ptr %38, i32 0, i32 1
  store ptr %36, ptr %39, align 8, !tbaa !10
  br label %40

40:                                               ; preds = %29
  br label %41

41:                                               ; preds = %40
  %42 = getelementptr inbounds [3 x %struct.ASNGetData], ptr %13, i64 0, i64 0
  %43 = load ptr, ptr %7, align 8, !tbaa !7
  %44 = load i32, ptr %8, align 4, !tbaa !3
  %45 = call i32 @GetASN_Items(ptr noundef @dsaSigASN, ptr noundef %42, i32 noundef 3, i32 noundef 1, ptr noundef %43, ptr noundef %14, i32 noundef %44)
  call void @llvm.lifetime.end.p0(i64 4, ptr %14) #9
  call void @llvm.lifetime.end.p0(i64 120, ptr %13) #9
  ret i32 %45
}