; Function Attrs: nounwind uwtable
define range(i32 -192, 1) i32 @DecodeECC_DSA_Sig_Bin(ptr noundef %0, i32 noundef %1, ptr noundef %2, ptr noundef %3, ptr noundef %4, ptr noundef %5) local_unnamed_addr #2 {
  %7 = alloca [3 x %struct.ASNGetData], align 16
  %8 = alloca i32, align 4
  call void @llvm.lifetime.start.p0(i64 120, ptr nonnull %7) #22
  call void @llvm.lifetime.start.p0(i64 4, ptr nonnull %8) #22
  store i32 0, ptr %8, align 4, !tbaa !22
  call void @llvm.memset.p0.i64(ptr noundef nonnull align 16 dereferenceable(120) %7, i8 0, i64 120, i1 false)
  %9 = getelementptr inbounds nuw i8, ptr %7, i64 72
  store i8 5, ptr %9, align 8, !tbaa !32
  %10 = getelementptr inbounds nuw i8, ptr %7, i64 48
  store ptr %2, ptr %10, align 16, !tbaa !3
  %11 = getelementptr inbounds nuw i8, ptr %7, i64 56
  store ptr %3, ptr %11, align 8, !tbaa !3
  %12 = getelementptr inbounds nuw i8, ptr %7, i64 112
  store i8 5, ptr %12, align 16, !tbaa !32
  %13 = getelementptr inbounds nuw i8, ptr %7, i64 88
  store ptr %4, ptr %13, align 8, !tbaa !3
  %14 = getelementptr inbounds nuw i8, ptr %7, i64 96
  store ptr %5, ptr %14, align 16, !tbaa !3
  %15 = call i32 @GetASN_Items(ptr noundef nonnull @dsaSigASN, ptr noundef nonnull %7, i32 noundef 3, i32 noundef 1, ptr noundef %0, ptr noundef nonnull %8, i32 noundef %1)
  call void @llvm.lifetime.end.p0(i64 4, ptr nonnull %8) #22
  call void @llvm.lifetime.end.p0(i64 120, ptr nonnull %7) #22
  ret i32 %15
}